target datalayout = "e-m:e-p270:32:32-p271:32:32-p272:64:64-i64:64-i128:128-f80:128-n8:16:32:64-S128"
target triple = "x86_64-pc-linux-gnu"

@.str.18 = private unnamed_addr constant [33 x i8] c"../openssl/test/evp_extra_test.c\00", align 1
@nullprov = internal global ptr null, align 8
@.str.43 = private unnamed_addr constant [2 x i8] c"1\00", align 1
@.str.108 = private unnamed_addr constant [52 x i8] c"Test does not support a non-default library context\00", align 1
@.str.112 = private unnamed_addr constant [2 x i8] c"0\00", align 1
@.str.177 = private unnamed_addr constant [4 x i8] c"ctx\00", align 1
@.str.482 = private unnamed_addr constant [4 x i8] c"len\00", align 1
@.str.529 = private unnamed_addr constant [26 x i8] c"EVP_PKEY_keygen_init(ctx)\00", align 1
@.str.530 = private unnamed_addr constant [28 x i8] c"EVP_PKEY_keygen(ctx, &pkey)\00", align 1
@ecpub_nids = internal global [13 x i32] [i32 927, i32 415, i32 715, i32 716, i32 726, i32 727, i32 730, i32 731, i32 732, i32 733, i32 734, i32 931, i32 933], align 16
@.str.589 = private unnamed_addr constant [49 x i8] c"EVP_PKEY_CTX_set_ec_paramgen_curve_nid(ctx, nid)\00", align 1
@.str.590 = private unnamed_addr constant [5 x i8] c"1024\00", align 1
@.str.591 = private unnamed_addr constant [8 x i8] c"savelen\00", align 1
@.str.592 = private unnamed_addr constant [25 x i8] c"(pkey2 = EVP_PKEY_new())\00", align 1
@.str.593 = private unnamed_addr constant [37 x i8] c"(ec = EC_KEY_new_by_curve_name(nid))\00", align 1
@.str.594 = private unnamed_addr constant [34 x i8] c"EVP_PKEY_assign_EC_KEY(pkey2, ec)\00", align 1
@.str.595 = private unnamed_addr constant [48 x i8] c"d2i_PublicKey(EVP_PKEY_EC, &pkey2, &q, savelen)\00", align 1
@.str.596 = private unnamed_addr constant [25 x i8] c"EVP_PKEY_eq(pkey, pkey2)\00", align 1

; Function Attrs: nounwind uwtable
define internal i32 @test_ecpub(i32 noundef %0) #0 {
  %2 = alloca i32, align 4
  %3 = alloca i32, align 4
  %4 = alloca i32, align 4
  %5 = alloca i32, align 4
  %6 = alloca i32, align 4
  %7 = alloca i32, align 4
  %8 = alloca [1024 x i8], align 16
  %9 = alloca ptr, align 8
  %10 = alloca ptr, align 8
  %11 = alloca ptr, align 8
  %12 = alloca ptr, align 8
  %13 = alloca ptr, align 8
  %14 = alloca ptr, align 8
  %15 = alloca i32, align 4
  store i32 %0, ptr %3, align 4, !tbaa !9
  call void @llvm.lifetime.start.p0(i64 4, ptr %4) #8
  store i32 0, ptr %4, align 4, !tbaa !9
  call void @llvm.lifetime.start.p0(i64 4, ptr %5) #8
  call void @llvm.lifetime.start.p0(i64 4, ptr %6) #8
  call void @llvm.lifetime.start.p0(i64 4, ptr %7) #8
  call void @llvm.lifetime.start.p0(i64 1024, ptr %8) #8
  call void @llvm.lifetime.start.p0(i64 8, ptr %9) #8
  call void @llvm.lifetime.start.p0(i64 8, ptr %10) #8
  store ptr null, ptr %10, align 8, !tbaa !21
  call void @llvm.lifetime.start.p0(i64 8, ptr %11) #8
  store ptr null, ptr %11, align 8, !tbaa !29
  call void @llvm.lifetime.start.p0(i64 8, ptr %12) #8
  call void @llvm.lifetime.start.p0(i64 8, ptr %13) #8
  store ptr null, ptr %13, align 8, !tbaa !21
  call void @llvm.lifetime.start.p0(i64 8, ptr %14) #8
  store ptr null, ptr %14, align 8, !tbaa !83
  %16 = load ptr, ptr @nullprov, align 8, !tbaa !13
  %17 = icmp ne ptr %16, null
  br i1 %17, label %18, label %20

18:                                               ; preds = %1
  %19 = call i32 (ptr, i32, ptr, ...) @test_skip(ptr noundef @.str.18, i32 noundef 4448, ptr noundef @.str.108)
  store i32 %19, ptr %2, align 4
  store i32 1, ptr %15, align 4
  br label %113

20:                                               ; preds = %1
  %21 = load i32, ptr %3, align 4, !tbaa !9
  %22 = sext i32 %21 to i64
  %23 = getelementptr inbounds [13 x i32], ptr @ecpub_nids, i64 0, i64 %22
  %24 = load i32, ptr %23, align 4, !tbaa !9
  store i32 %24, ptr %7, align 4, !tbaa !9
  %25 = call ptr @EVP_PKEY_CTX_new_id(i32 noundef 408, ptr noundef null)
  store ptr %25, ptr %11, align 8, !tbaa !29
  %26 = load ptr, ptr %11, align 8, !tbaa !29
  %27 = call i32 @test_ptr(ptr noundef @.str.18, i32 noundef 4453, ptr noundef @.str.177, ptr noundef %26)
  %28 = icmp ne i32 %27, 0
  br i1 %28, label %29, label %47

29:                                               ; preds = %20
  %30 = load ptr, ptr %11, align 8, !tbaa !29
  %31 = call i32 @EVP_PKEY_keygen_init(ptr noundef %30)
  %32 = call i32 @test_int_gt(ptr noundef @.str.18, i32 noundef 4454, ptr noundef @.str.529, ptr noundef @.str.112, i32 noundef %31, i32 noundef 0)
  %33 = icmp ne i32 %32, 0
  br i1 %33, label %34, label %47

34:                                               ; preds = %29
  %35 = load ptr, ptr %11, align 8, !tbaa !29
  %36 = load i32, ptr %7, align 4, !tbaa !9
  %37 = call i32 @EVP_PKEY_CTX_set_ec_paramgen_curve_nid(ptr noundef %35, i32 noundef %36)
  %38 = call i32 @test_int_gt(ptr noundef @.str.18, i32 noundef 4455, ptr noundef @.str.589, ptr noundef @.str.112, i32 noundef %37, i32 noundef 0)
  %39 = icmp ne i32 %38, 0
  br i1 %39, label %40, label %47

40:                                               ; preds = %34
  %41 = load ptr, ptr %11, align 8, !tbaa !29
  %42 = call i32 @EVP_PKEY_keygen(ptr noundef %41, ptr noundef %10)
  %43 = icmp ne i32 %42, 0
  %44 = zext i1 %43 to i32
  %45 = call i32 @test_true(ptr noundef @.str.18, i32 noundef 4456, ptr noundef @.str.530, i32 noundef %44)
  %46 = icmp ne i32 %45, 0
  br i1 %46, label %48, label %47

47:                                               ; preds = %40, %34, %29, %20
  br label %107

48:                                               ; preds = %40
  %49 = load ptr, ptr %10, align 8, !tbaa !21
  %50 = call i32 @i2d_PublicKey(ptr noundef %49, ptr noundef null)
  store i32 %50, ptr %5, align 4, !tbaa !9
  %51 = load i32, ptr %5, align 4, !tbaa !9
  store i32 %51, ptr %6, align 4, !tbaa !9
  %52 = load i32, ptr %5, align 4, !tbaa !9
  %53 = call i32 @test_int_ge(ptr noundef @.str.18, i32 noundef 4460, ptr noundef @.str.482, ptr noundef @.str.43, i32 noundef %52, i32 noundef 1)
  %54 = icmp ne i32 %53, 0
  br i1 %54, label %55, label %59

55:                                               ; preds = %48
  %56 = load i32, ptr %5, align 4, !tbaa !9
  %57 = call i32 @test_int_lt(ptr noundef @.str.18, i32 noundef 4461, ptr noundef @.str.482, ptr noundef @.str.590, i32 noundef %56, i32 noundef 1024)
  %58 = icmp ne i32 %57, 0
  br i1 %58, label %60, label %59

59:                                               ; preds = %55, %48
  br label %107

60:                                               ; preds = %55
  %61 = getelementptr inbounds [1024 x i8], ptr %8, i64 0, i64 0
  store ptr %61, ptr %9, align 8, !tbaa !4
  %62 = load ptr, ptr %10, align 8, !tbaa !21
  %63 = call i32 @i2d_PublicKey(ptr noundef %62, ptr noundef %9)
  store i32 %63, ptr %5, align 4, !tbaa !9
  %64 = load i32, ptr %5, align 4, !tbaa !9
  %65 = call i32 @test_int_ge(ptr noundef @.str.18, i32 noundef 4465, ptr noundef @.str.482, ptr noundef @.str.43, i32 noundef %64, i32 noundef 1)
  %66 = icmp ne i32 %65, 0
  br i1 %66, label %67, label %72

67:                                               ; preds = %60
  %68 = load i32, ptr %5, align 4, !tbaa !9
  %69 = load i32, ptr %6, align 4, !tbaa !9
  %70 = call i32 @test_int_eq(ptr noundef @.str.18, i32 noundef 4466, ptr noundef @.str.482, ptr noundef @.str.591, i32 noundef %68, i32 noundef %69)
  %71 = icmp ne i32 %70, 0
  br i1 %71, label %73, label %72

72:                                               ; preds = %67, %60
  br label %107

73:                                               ; preds = %67
  %74 = getelementptr inbounds [1024 x i8], ptr %8, i64 0, i64 0
  store ptr %74, ptr %12, align 8, !tbaa !4
  %75 = call ptr @EVP_PKEY_new()
  store ptr %75, ptr %13, align 8, !tbaa !21
  %76 = call i32 @test_ptr(ptr noundef @.str.18, i32 noundef 4472, ptr noundef @.str.592, ptr noundef %75)
  %77 = icmp ne i32 %76, 0
  br i1 %77, label %78, label %91

78:                                               ; preds = %73
  %79 = load i32, ptr %7, align 4, !tbaa !9
  %80 = call ptr @EC_KEY_new_by_curve_name(i32 noundef %79)
  store ptr %80, ptr %14, align 8, !tbaa !83
  %81 = call i32 @test_ptr(ptr noundef @.str.18, i32 noundef 4473, ptr noundef @.str.593, ptr noundef %80)
  %82 = icmp ne i32 %81, 0
  br i1 %82, label %83, label %91

83:                                               ; preds = %78
  %84 = load ptr, ptr %13, align 8, !tbaa !21
  %85 = load ptr, ptr %14, align 8, !tbaa !83
  %86 = call i32 @EVP_PKEY_assign(ptr noundef %84, i32 noundef 408, ptr noundef %85)
  %87 = icmp ne i32 %86, 0
  %88 = zext i1 %87 to i32
  %89 = call i32 @test_true(ptr noundef @.str.18, i32 noundef 4474, ptr noundef @.str.594, i32 noundef %88)
  %90 = icmp ne i32 %89, 0
  br i1 %90, label %92, label %91

91:                                               ; preds = %83, %78, %73
  br label %107

92:                                               ; preds = %83
  store ptr null, ptr %14, align 8, !tbaa !83
  %93 = load i32, ptr %6, align 4, !tbaa !9
  %94 = sext i32 %93 to i64
  %95 = call ptr @d2i_PublicKey(i32 noundef 408, ptr noundef %13, ptr noundef %12, i64 noundef %94)
  %96 = call i32 @test_ptr(ptr noundef @.str.18, i32 noundef 4478, ptr noundef @.str.595, ptr noundef %95)
  %97 = icmp ne i32 %96, 0
  br i1 %97, label %99, label %98

98:                                               ; preds = %92
  br label %107

99:                                               ; preds = %92
  %100 = load ptr, ptr %10, align 8, !tbaa !21
  %101 = load ptr, ptr %13, align 8, !tbaa !21
  %102 = call i32 @EVP_PKEY_eq(ptr noundef %100, ptr noundef %101)
  %103 = call i32 @test_int_eq(ptr noundef @.str.18, i32 noundef 4481, ptr noundef @.str.596, ptr noundef @.str.43, i32 noundef %102, i32 noundef 1)
  %104 = icmp ne i32 %103, 0
  br i1 %104, label %106, label %105

105:                                              ; preds = %99
  br label %107

106:                                              ; preds = %99
  store i32 1, ptr %4, align 4, !tbaa !9
  br label %107

107:                                              ; preds = %106, %105, %98, %91, %72, %59, %47
  %108 = load ptr, ptr %11, align 8, !tbaa !29
  call void @EVP_PKEY_CTX_free(ptr noundef %108)
  %109 = load ptr, ptr %10, align 8, !tbaa !21
  call void @EVP_PKEY_free(ptr noundef %109)
  %110 = load ptr, ptr %13, align 8, !tbaa !21
  call void @EVP_PKEY_free(ptr noundef %110)
  %111 = load ptr, ptr %14, align 8, !tbaa !83
  call void @EC_KEY_free(ptr noundef %111)
  %112 = load i32, ptr %4, align 4, !tbaa !9
  store i32 %112, ptr %2, align 4
  store i32 1, ptr %15, align 4
  br label %113

113:                                              ; preds = %107, %18
  call void @llvm.lifetime.end.p0(i64 8, ptr %14) #8
  call void @llvm.lifetime.end.p0(i64 8, ptr %13) #8
  call void @llvm.lifetime.end.p0(i64 8, ptr %12) #8
  call void @llvm.lifetime.end.p0(i64 8, ptr %11) #8
  call void @llvm.lifetime.end.p0(i64 8, ptr %10) #8
  call void @llvm.lifetime.end.p0(i64 8, ptr %9) #8
  call void @llvm.lifetime.end.p0(i64 1024, ptr %8) #8
  call void @llvm.lifetime.end.p0(i64 4, ptr %7) #8
  call void @llvm.lifetime.end.p0(i64 4, ptr %6) #8
  call void @llvm.lifetime.end.p0(i64 4, ptr %5) #8
  call void @llvm.lifetime.end.p0(i64 4, ptr %4) #8
  %114 = load i32, ptr %2, align 4
  ret i32 %114
}