; Function Attrs: nounwind uwtable
define internal i32 @test_ecpub(i32 noundef %0) #1 {
  %2 = alloca [1024 x i8], align 16
  %3 = alloca ptr, align 8
  %4 = alloca ptr, align 8
  %5 = alloca ptr, align 8
  %6 = alloca ptr, align 8
  call void @llvm.lifetime.start.p0(i64 1024, ptr nonnull %2) #9
  call void @llvm.lifetime.start.p0(i64 8, ptr nonnull %3) #9
  call void @llvm.lifetime.start.p0(i64 8, ptr nonnull %4) #9
  store ptr null, ptr %4, align 8, !tbaa !21
  call void @llvm.lifetime.start.p0(i64 8, ptr nonnull %5) #9
  call void @llvm.lifetime.start.p0(i64 8, ptr nonnull %6) #9
  store ptr null, ptr %6, align 8, !tbaa !21
  %7 = load ptr, ptr @nullprov, align 8, !tbaa !11
  %.not = icmp eq ptr %7, null
  br i1 %.not, label %10, label %8

8:                                                ; preds = %1
  %9 = tail call i32 (ptr, i32, ptr, ...) @test_skip(ptr noundef nonnull @.str.18, i32 noundef 4448, ptr noundef nonnull @.str.108) #9
  br label %62

10:                                               ; preds = %1
  %11 = sext i32 %0 to i64
  %12 = getelementptr inbounds [13 x i32], ptr @ecpub_nids, i64 0, i64 %11
  %13 = load i32, ptr %12, align 4, !tbaa !25
  %14 = tail call ptr @EVP_PKEY_CTX_new_id(i32 noundef 408, ptr noundef null) #9
  %15 = tail call i32 @test_ptr(ptr noundef nonnull @.str.18, i32 noundef 4453, ptr noundef nonnull @.str.177, ptr noundef %14) #9
  %.not20 = icmp eq i32 %15, 0
  br i1 %.not20, label %59, label %16

16:                                               ; preds = %10
  %17 = tail call i32 @EVP_PKEY_keygen_init(ptr noundef %14) #9
  %18 = tail call i32 @test_int_gt(ptr noundef nonnull @.str.18, i32 noundef 4454, ptr noundef nonnull @.str.529, ptr noundef nonnull @.str.112, i32 noundef %17, i32 noundef 0) #9
  %.not21 = icmp eq i32 %18, 0
  br i1 %.not21, label %59, label %19

19:                                               ; preds = %16
  %20 = tail call i32 @EVP_PKEY_CTX_set_ec_paramgen_curve_nid(ptr noundef %14, i32 noundef %13) #9
  %21 = tail call i32 @test_int_gt(ptr noundef nonnull @.str.18, i32 noundef 4455, ptr noundef nonnull @.str.589, ptr noundef nonnull @.str.112, i32 noundef %20, i32 noundef 0) #9
  %.not22 = icmp eq i32 %21, 0
  br i1 %.not22, label %59, label %22

22:                                               ; preds = %19
  %23 = call i32 @EVP_PKEY_keygen(ptr noundef %14, ptr noundef nonnull %4) #9
  %24 = icmp ne i32 %23, 0
  %25 = zext i1 %24 to i32
  %26 = call i32 @test_true(ptr noundef nonnull @.str.18, i32 noundef 4456, ptr noundef nonnull @.str.530, i32 noundef %25) #9
  %.not23 = icmp eq i32 %26, 0
  br i1 %.not23, label %59, label %27

27:                                               ; preds = %22
  %28 = load ptr, ptr %4, align 8, !tbaa !21
  %29 = call i32 @i2d_PublicKey(ptr noundef %28, ptr noundef null) #9
  %30 = call i32 @test_int_ge(ptr noundef nonnull @.str.18, i32 noundef 4460, ptr noundef nonnull @.str.482, ptr noundef nonnull @.str.43, i32 noundef %29, i32 noundef 1) #9
  %.not24 = icmp eq i32 %30, 0
  br i1 %.not24, label %59, label %31

31:                                               ; preds = %27
  %32 = call i32 @test_int_lt(ptr noundef nonnull @.str.18, i32 noundef 4461, ptr noundef nonnull @.str.482, ptr noundef nonnull @.str.590, i32 noundef %29, i32 noundef 1024) #9
  %.not25 = icmp eq i32 %32, 0
  br i1 %.not25, label %59, label %33

33:                                               ; preds = %31
  store ptr %2, ptr %3, align 8, !tbaa !19
  %34 = load ptr, ptr %4, align 8, !tbaa !21
  %35 = call i32 @i2d_PublicKey(ptr noundef %34, ptr noundef nonnull %3) #9
  %36 = call i32 @test_int_ge(ptr noundef nonnull @.str.18, i32 noundef 4465, ptr noundef nonnull @.str.482, ptr noundef nonnull @.str.43, i32 noundef %35, i32 noundef 1) #9
  %.not26 = icmp eq i32 %36, 0
  br i1 %.not26, label %59, label %37

37:                                               ; preds = %33
  %38 = call i32 @test_int_eq(ptr noundef nonnull @.str.18, i32 noundef 4466, ptr noundef nonnull @.str.482, ptr noundef nonnull @.str.591, i32 noundef %35, i32 noundef %29) #9
  %.not27 = icmp eq i32 %38, 0
  br i1 %.not27, label %59, label %39

39:                                               ; preds = %37
  store ptr %2, ptr %5, align 8, !tbaa !19
  %40 = call ptr @EVP_PKEY_new() #9
  store ptr %40, ptr %6, align 8, !tbaa !21
  %41 = call i32 @test_ptr(ptr noundef nonnull @.str.18, i32 noundef 4472, ptr noundef nonnull @.str.592, ptr noundef %40) #9
  %.not28 = icmp eq i32 %41, 0
  br i1 %.not28, label %59, label %42

42:                                               ; preds = %39
  %43 = call ptr @EC_KEY_new_by_curve_name(i32 noundef %13) #9
  %44 = call i32 @test_ptr(ptr noundef nonnull @.str.18, i32 noundef 4473, ptr noundef nonnull @.str.593, ptr noundef %43) #9
  %.not29 = icmp eq i32 %44, 0
  br i1 %.not29, label %59, label %45

45:                                               ; preds = %42
  %46 = call i32 @EVP_PKEY_assign(ptr noundef %40, i32 noundef 408, ptr noundef %43) #9
  %47 = icmp ne i32 %46, 0
  %48 = zext i1 %47 to i32
  %49 = call i32 @test_true(ptr noundef nonnull @.str.18, i32 noundef 4474, ptr noundef nonnull @.str.594, i32 noundef %48) #9
  %.not30 = icmp eq i32 %49, 0
  br i1 %.not30, label %59, label %50

50:                                               ; preds = %45
  %51 = sext i32 %29 to i64
  %52 = call ptr @d2i_PublicKey(i32 noundef 408, ptr noundef nonnull %6, ptr noundef nonnull %5, i64 noundef %51) #9
  %53 = call i32 @test_ptr(ptr noundef nonnull @.str.18, i32 noundef 4478, ptr noundef nonnull @.str.595, ptr noundef %52) #9
  %.not31 = icmp eq i32 %53, 0
  br i1 %.not31, label %59, label %54

54:                                               ; preds = %50
  %55 = load ptr, ptr %4, align 8, !tbaa !21
  %56 = load ptr, ptr %6, align 8, !tbaa !21
  %57 = call i32 @EVP_PKEY_eq(ptr noundef %55, ptr noundef %56) #9
  %58 = call i32 @test_int_eq(ptr noundef nonnull @.str.18, i32 noundef 4481, ptr noundef nonnull @.str.596, ptr noundef nonnull @.str.43, i32 noundef %57, i32 noundef 1) #9
  %.not32 = icmp ne i32 %58, 0
  %spec.select = zext i1 %.not32 to i32
  br label %59

59:                                               ; preds = %54, %50, %39, %42, %45, %33, %37, %27, %31, %10, %16, %19, %22
  %.019 = phi i32 [ 0, %50 ], [ 0, %45 ], [ 0, %42 ], [ 0, %39 ], [ 0, %37 ], [ 0, %33 ], [ 0, %31 ], [ 0, %27 ], [ 0, %22 ], [ 0, %19 ], [ 0, %16 ], [ 0, %10 ], [ %spec.select, %54 ]
  %.0 = phi ptr [ null, %50 ], [ %43, %45 ], [ %43, %42 ], [ null, %39 ], [ null, %37 ], [ null, %33 ], [ null, %31 ], [ null, %27 ], [ null, %22 ], [ null, %19 ], [ null, %16 ], [ null, %10 ], [ null, %54 ]
  call void @EVP_PKEY_CTX_free(ptr noundef %14) #9
  %60 = load ptr, ptr %4, align 8, !tbaa !21
  call void @EVP_PKEY_free(ptr noundef %60) #9
  %61 = load ptr, ptr %6, align 8, !tbaa !21
  call void @EVP_PKEY_free(ptr noundef %61) #9
  call void @EC_KEY_free(ptr noundef %.0) #9
  br label %62

62:                                               ; preds = %59, %8
  %.018 = phi i32 [ %9, %8 ], [ %.019, %59 ]
  call void @llvm.lifetime.end.p0(i64 8, ptr nonnull %6) #9
  call void @llvm.lifetime.end.p0(i64 8, ptr nonnull %5) #9
  call void @llvm.lifetime.end.p0(i64 8, ptr nonnull %4) #9
  call void @llvm.lifetime.end.p0(i64 8, ptr nonnull %3) #9
  call void @llvm.lifetime.end.p0(i64 1024, ptr nonnull %2) #9
  ret i32 %.018
}